; Function Attrs: mustprogress nounwind uwtable
define hidden void @_ZN14ShenandoahHeap19notify_heap_changedEv(ptr noundef nonnull align 8 dereferenceable(2657) %0) local_unnamed_addr #1 align 2 {
  %2 = getelementptr inbounds i8, ptr %0, i64 1688
  %3 = load ptr, ptr %2, align 8
  tail call void @_ZN27ShenandoahMonitoringSupport19notify_heap_changedEv(ptr noundef nonnull align 8 dereferenceable(336) %3) #26
  %4 = getelementptr inbounds i8, ptr %0, i64 898
  %5 = load volatile i8, ptr %4, align 2
  tail call void asm sideeffect "", "~{memory},~{dirflag},~{fpsr},~{flags}"() #26, !srcloc !14
  %6 = icmp eq i8 %5, 1
  br i1 %6, label %_ZN20ShenandoahSharedFlag7try_setEv.exit, label %7

7:                                                ; preds = %1
  %8 = tail call noundef i8 asm sideeffect "lock cmpxchgb $1,($3)", "={ax},q,{ax},r,~{cc},~{memory},~{dirflag},~{fpsr},~{flags}"(i8 1, i8 0, ptr nonnull %4) #26, !srcloc !20
  br label %_ZN20ShenandoahSharedFlag7try_setEv.exit

_ZN20ShenandoahSharedFlag7try_setEv.exit:         ; preds = %1, %7
  ret void
}